Certificate:
    Data:
        Version: 3 (0x2)
        Serial Number: 2 (0x2)
    Signature Algorithm: sha256WithRSAEncryption
        Issuer: C=HK, ST=Hong Kong, L=Hong Kong Science Park, O=ASTRI, OU=ICDD, CN=\x00r\x00o\x00o\x00t\x00_\x00c\x00a\x00_\x00v\x00k
        Validity
            Not Before: Aug 22 08:32:48 2016 GMT
            Not After : Aug 20 08:32:48 2026 GMT
        Subject: C=HK, ST=Hong Kong, O=ASTRI, OU=ICDD, CN=bitcoind-18335
        Subject Public Key Info:
            Public Key Algorithm: rsaEncryption
                Public-Key: (1024 bit)
                Modulus:
                    00:bf:03:95:50:53:ce:ca:1a:9f:af:44:0e:4c:21:
                    04:4a:bc:f2:78:52:04:57:53:4f:62:90:01:f3:af:
                    f1:56:82:3b:25:70:89:14:9d:d0:35:31:2d:80:74:
                    18:6c:c3:cc:6c:9a:af:fc:a2:79:5b:f2:f7:21:87:
                    ad:3f:82:f4:f8:f7:4a:44:14:58:c0:93:c7:11:34:
                    3c:d2:39:43:a8:bd:cf:77:29:bf:b1:e0:a7:76:dc:
                    ff:7f:e2:14:bc:1a:6e:27:a2:37:07:8f:46:43:2c:
                    b4:35:09:e9:bf:bc:92:ee:a6:6e:8c:2b:1e:60:f8:
                    5f:87:b6:c3:9e:56:36:2e:fb
                Exponent: 65537 (0x10001)
        X509v3 extensions:
            X509v3 Basic Constraints: 
                CA:FALSE
            Netscape Comment: 
                OpenSSL Generated Certificate
            X509v3 Subject Key Identifier: 
                B1:CF:B8:14:41:BA:6B:20:34:10:0C:9C:31:B9:5F:24:6C:80:CE:77
            X509v3 Authority Key Identifier: 
                keyid:F2:BC:38:DC:28:85:34:A7:B4:89:50:1A:5D:6E:9D:25:23:F7:C0:2B

    Signature Algorithm: sha256WithRSAEncryption
         1a:9f:50:76:fd:bf:c7:5d:31:d2:a5:7d:0f:38:50:39:d4:ca:
         4e:3d:53:46:67:32:3b:fb:73:2d:02:7d:ce:fe:da:9b:27:43:
         59:d5:9e:d5:80:b9:54:da:ba:14:3c:a1:5d:7f:8f:05:fd:7c:
         f1:47:3e:f7:22:bc:69:6a:10:fe:94:79:3f:13:09:63:7e:80:
         54:c5:76:a6:ab:2b:dc:8e:9f:af:88:19:f0:f9:bd:0d:ae:af:
         cc:ea:2c:9b:3b:10:17:f3:da:50:03:9b:2d:e2:8f:9a:2c:b8:
         eb:ad:18:fe:63:6e:42:a2:a7:8c:ad:0e:47:6a:20:c0:81:04:
         c6:27
-----BEGIN CERTIFICATE-----
MIICyzCCAjSgAwIBAgIBAjANBgkqhkiG9w0BAQsFADCBgDELMAkGA1UEBhMCSEsx
EjAQBgNVBAgTCUhvbmcgS29uZzEfMB0GA1UEBxMWSG9uZyBLb25nIFNjaWVuY2Ug
UGFyazEOMAwGA1UEChMFQVNUUkkxDTALBgNVBAsTBElDREQxHTAbBgNVBAMeFABy
AG8AbwB0AF8AYwBhAF8AdgBrMB4XDTE2MDgyMjA4MzI0OFoXDTI2MDgyMDA4MzI0
OFowWTELMAkGA1UEBhMCSEsxEjAQBgNVBAgTCUhvbmcgS29uZzEOMAwGA1UEChMF
QVNUUkkxDTALBgNVBAsTBElDREQxFzAVBgNVBAMTDmJpdGNvaW5kLTE4MzM1MIGf
MA0GCSqGSIb3DQEBAQUAA4GNADCBiQKBgQC/A5VQU87KGp+vRA5MIQRKvPJ4UgRX
U09ikAHzr/FWgjslcIkUndA1MS2AdBhsw8xsmq/8onlb8vchh60/gvT490pEFFjA
k8cRNDzSOUOovc93Kb+x4Kd23P9/4hS8Gm4nojcHj0ZDLLQ1Cem/vJLupm6MKx5g
+F+HtsOeVjYu+wIDAQABo3sweTAJBgNVHRMEAjAAMCwGCWCGSAGG+EIBDQQfFh1P
cGVuU1NMIEdlbmVyYXRlZCBDZXJ0aWZpY2F0ZTAdBgNVHQ4EFgQUsc+4FEG6ayA0
EAycMblfJGyAzncwHwYDVR0jBBgwFoAU8rw43CiFNKe0iVAaXW6dJSP3wCswDQYJ
KoZIhvcNAQELBQADgYEAGp9Qdv2/x10x0qV9DzhQOdTKTj1TRmcyO/tzLQJ9zv7a
mydDWdWe1YC5VNq6FDyhXX+PBf188Uc+9yK8aWoQ/pR5PxMJY36AVMV2pqsr3I6f
r4gZ8Pm9Da6vzOosmzsQF/PaUAObLeKPmiy4660Y/mNuQqKnjK0OR2ogwIEExic=
-----END CERTIFICATE-----
