Certificate:
    Data:
        Version: 3 (0x2)
        Serial Number: 0 (0x0)
    Signature Algorithm: sha256WithRSAEncryption
        Issuer: C=HK, ST=Hong Kong, L=Hong Kong Science Park, O=ASTRI, OU=ICDD, CN=\x00r\x00o\x00o\x00t\x00_\x00c\x00a\x00_\x00v\x00k
        Validity
            Not Before: Aug  5 02:04:45 2016 GMT
            Not After : Aug  3 02:04:45 2026 GMT
        Subject: C=HK, ST=Hong Kong, O=ASTRI, OU=ICDD, CN=client
        Subject Public Key Info:
            Public Key Algorithm: rsaEncryption
                Public-Key: (1024 bit)
                Modulus:
                    00:d8:0d:e0:57:1c:07:f0:be:60:5d:6d:10:ff:ab:
                    34:92:92:06:cc:be:65:32:06:1b:7a:7a:14:4d:d7:
                    00:38:73:f8:2f:29:70:43:14:b4:47:d8:90:c8:96:
                    8e:d2:aa:c4:d7:63:05:33:c5:f1:44:d8:2a:0a:32:
                    0c:d5:60:6f:70:45:9b:76:6b:f9:ba:f9:4d:85:af:
                    23:6e:5a:c5:c2:60:64:f2:d8:c1:9b:38:fe:97:b0:
                    f2:1f:4f:5a:48:55:92:7d:e4:2b:51:b1:ba:a6:21:
                    05:c7:af:c3:3d:45:13:f8:72:c2:18:d2:f4:b0:68:
                    03:d1:c5:cf:cd:d1:9b:9f:51
                Exponent: 65537 (0x10001)
        X509v3 extensions:
            X509v3 Basic Constraints: 
                CA:FALSE
            Netscape Comment: 
                OpenSSL Generated Certificate
            X509v3 Subject Key Identifier: 
                C2:1C:D1:6F:F8:D2:91:38:C3:E4:EB:05:84:02:BA:73:D1:B6:5F:97
            X509v3 Authority Key Identifier: 
                keyid:F2:BC:38:DC:28:85:34:A7:B4:89:50:1A:5D:6E:9D:25:23:F7:C0:2B

    Signature Algorithm: sha256WithRSAEncryption
         6d:1a:9b:b1:28:3b:fb:1c:6e:58:bd:37:2e:ac:2c:8f:12:a0:
         72:1f:50:ab:cb:0b:6f:d3:69:dc:0a:c6:e2:56:92:06:68:cf:
         19:ab:59:ad:27:b4:34:96:af:40:18:13:5d:d5:22:56:b4:d1:
         26:92:21:13:df:7b:5b:94:32:21:85:a5:c8:f7:7a:aa:90:fb:
         3e:28:b1:e6:86:ea:0d:02:59:cf:e1:b4:c6:f8:e7:f0:4b:82:
         45:08:7e:cb:01:b5:af:39:b9:51:02:1e:6a:e1:a8:09:5d:ee:
         76:76:9f:39:04:d2:ad:9c:3c:11:dd:b7:99:91:a0:de:2c:10:
         6c:c3
-----BEGIN CERTIFICATE-----
MIICwzCCAiygAwIBAgIBADANBgkqhkiG9w0BAQsFADCBgDELMAkGA1UEBhMCSEsx
EjAQBgNVBAgTCUhvbmcgS29uZzEfMB0GA1UEBxMWSG9uZyBLb25nIFNjaWVuY2Ug
UGFyazEOMAwGA1UEChMFQVNUUkkxDTALBgNVBAsTBElDREQxHTAbBgNVBAMeFABy
AG8AbwB0AF8AYwBhAF8AdgBrMB4XDTE2MDgwNTAyMDQ0NVoXDTI2MDgwMzAyMDQ0
NVowUTELMAkGA1UEBhMCSEsxEjAQBgNVBAgTCUhvbmcgS29uZzEOMAwGA1UEChMF
QVNUUkkxDTALBgNVBAsTBElDREQxDzANBgNVBAMTBmNsaWVudDCBnzANBgkqhkiG
9w0BAQEFAAOBjQAwgYkCgYEA2A3gVxwH8L5gXW0Q/6s0kpIGzL5lMgYbenoUTdcA
OHP4LylwQxS0R9iQyJaO0qrE12MFM8XxRNgqCjIM1WBvcEWbdmv5uvlNha8jblrF
wmBk8tjBmzj+l7DyH09aSFWSfeQrUbG6piEFx6/DPUUT+HLCGNL0sGgD0cXPzdGb
n1ECAwEAAaN7MHkwCQYDVR0TBAIwADAsBglghkgBhvhCAQ0EHxYdT3BlblNTTCBH
ZW5lcmF0ZWQgQ2VydGlmaWNhdGUwHQYDVR0OBBYEFMIc0W/40pE4w+TrBYQCunPR
tl+XMB8GA1UdIwQYMBaAFPK8ONwohTSntIlQGl1unSUj98ArMA0GCSqGSIb3DQEB
CwUAA4GBAG0am7EoO/scbli9Ny6sLI8SoHIfUKvLC2/TadwKxuJWkgZozxmrWa0n
tDSWr0AYE13VIla00SaSIRPfe1uUMiGFpcj3eqqQ+z4oseaG6g0CWc/htMb45/BL
gkUIfssBta85uVECHmrhqAld7nZ2nzkE0q2cPBHdt5mRoN4sEGzD
-----END CERTIFICATE-----
